target datalayout = "e-m:e-p270:32:32-p271:32:32-p272:64:64-i64:64-i128:128-f80:128-n8:16:32:64-S128"
target triple = "x86_64-pc-linux-gnu"

%struct.AVFormatContext = type { ptr, ptr, ptr, ptr, ptr, i32, i32, ptr, i32, ptr, i32, ptr, ptr, i64, i64, i64, i32, i32, i32, i64, i64, ptr, i32, i32, ptr, i32, i32, i32, i32, ptr, i64, i32, i32, %struct.AVIOInterruptCB, i32, i32, i32, i32, i64, i32, i32, i32, i32, i32, i32, i32, i32, i32, i32, i32, i32, i64, i32, i32, i32, i32, i32, ptr, ptr, ptr, ptr, i32, ptr, ptr, ptr, ptr, i32, ptr, ptr, i64, ptr, ptr, ptr, i64 }
%struct.AVIOInterruptCB = type { ptr, ptr }
%struct.AVStream = type { ptr, i32, i32, ptr, ptr, %struct.AVRational, i64, i64, i64, i32, i32, %struct.AVRational, ptr, %struct.AVRational, %struct.AVPacket, i32, %struct.AVRational, i32 }
%struct.AVPacket = type { ptr, i64, i64, ptr, i32, i32, i32, ptr, i32, i64, i64, ptr, ptr, %struct.AVRational }
%struct.AVRational = type { i32, i32 }
%struct.AVCodecParameters = type { i32, i32, i32, ptr, i32, ptr, i32, i32, i64, i32, i32, i32, i32, i32, i32, %struct.AVRational, %struct.AVRational, i32, i32, i32, i32, i32, i32, i32, %struct.AVChannelLayout, i32, i32, i32, i32, i32, i32 }
%struct.AVChannelLayout = type { i32, i32, %union.anon, ptr }
%union.anon = type { i64 }
%struct.AVIOContext = type { ptr, ptr, i32, ptr, ptr, ptr, ptr, ptr, ptr, i64, i32, i32, i32, i32, i32, i64, ptr, ptr, ptr, ptr, i32, i32, ptr, ptr, ptr, i32, ptr, i64, i64 }

@.str.6 = private unnamed_addr constant [111 x i8] c"Too many frames in the file to properly encode the header (%ld). Block count in the header will be truncated.\0A\00", align 1
@.str.7 = private unnamed_addr constant [31 x i8] c"Unable to rewrite AEA header.\0A\00", align 1

; Function Attrs: nounwind uwtable
define internal i32 @aea_write_trailer(ptr noundef %0) #0 {
  %2 = alloca ptr, align 8
  %3 = alloca i64, align 8
  %4 = alloca ptr, align 8
  %5 = alloca ptr, align 8
  store ptr %0, ptr %2, align 8, !tbaa !4
  call void @llvm.lifetime.start.p0(i64 8, ptr %3) #4
  call void @llvm.lifetime.start.p0(i64 8, ptr %4) #4
  %6 = load ptr, ptr %2, align 8, !tbaa !4
  %7 = getelementptr inbounds nuw %struct.AVFormatContext, ptr %6, i32 0, i32 4
  %8 = load ptr, ptr %7, align 8, !tbaa !40
  store ptr %8, ptr %4, align 8, !tbaa !47
  call void @llvm.lifetime.start.p0(i64 8, ptr %5) #4
  %9 = load ptr, ptr %2, align 8, !tbaa !4
  %10 = getelementptr inbounds nuw %struct.AVFormatContext, ptr %9, i32 0, i32 7
  %11 = load ptr, ptr %10, align 8, !tbaa !11
  %12 = getelementptr inbounds ptr, ptr %11, i64 0
  %13 = load ptr, ptr %12, align 8, !tbaa !27
  store ptr %13, ptr %5, align 8, !tbaa !27
  %14 = load ptr, ptr %4, align 8, !tbaa !47
  %15 = getelementptr inbounds nuw %struct.AVIOContext, ptr %14, i32 0, i32 20
  %16 = load i32, ptr %15, align 8, !tbaa !48
  %17 = and i32 %16, 1
  %18 = icmp ne i32 %17, 0
  br i1 %18, label %19, label %42

19:                                               ; preds = %1
  %20 = load ptr, ptr %4, align 8, !tbaa !47
  %21 = call i64 @avio_seek(ptr noundef %20, i64 noundef 260, i32 noundef 0)
  %22 = load ptr, ptr %5, align 8, !tbaa !27
  %23 = getelementptr inbounds nuw %struct.AVStream, ptr %22, i32 0, i32 8
  %24 = load i64, ptr %23, align 8, !tbaa !50
  %25 = load ptr, ptr %5, align 8, !tbaa !27
  %26 = getelementptr inbounds nuw %struct.AVStream, ptr %25, i32 0, i32 3
  %27 = load ptr, ptr %26, align 8, !tbaa !29
  %28 = getelementptr inbounds nuw %struct.AVCodecParameters, ptr %27, i32 0, i32 24
  %29 = getelementptr inbounds nuw %struct.AVChannelLayout, ptr %28, i32 0, i32 1
  %30 = load i32, ptr %29, align 4, !tbaa !36
  %31 = sext i32 %30 to i64
  %32 = mul nsw i64 %24, %31
  store i64 %32, ptr %3, align 8, !tbaa !9
  %33 = load i64, ptr %3, align 8, !tbaa !9
  %34 = icmp sgt i64 %33, 4294967295
  br i1 %34, label %35, label %38

35:                                               ; preds = %19
  %36 = load ptr, ptr %2, align 8, !tbaa !4
  %37 = load i64, ptr %3, align 8, !tbaa !9
  call void (ptr, i32, ptr, ...) @av_log(ptr noundef %36, i32 noundef 24, ptr noundef @.str.6, i64 noundef %37)
  store i64 4294967295, ptr %3, align 8, !tbaa !9
  br label %38

38:                                               ; preds = %35, %19
  %39 = load ptr, ptr %4, align 8, !tbaa !47
  %40 = load i64, ptr %3, align 8, !tbaa !9
  %41 = trunc i64 %40 to i32
  call void @avio_wl32(ptr noundef %39, i32 noundef %41)
  br label %44

42:                                               ; preds = %1
  %43 = load ptr, ptr %2, align 8, !tbaa !4
  call void (ptr, i32, ptr, ...) @av_log(ptr noundef %43, i32 noundef 24, ptr noundef @.str.7)
  br label %44

44:                                               ; preds = %42, %38
  call void @llvm.lifetime.end.p0(i64 8, ptr %5) #4
  call void @llvm.lifetime.end.p0(i64 8, ptr %4) #4
  call void @llvm.lifetime.end.p0(i64 8, ptr %3) #4
  ret i32 0
}