; Function Attrs: nounwind uwtable
define internal noundef i32 @aea_write_trailer(ptr noundef %0) #0 {
  %2 = getelementptr inbounds nuw i8, ptr %0, i64 32
  %3 = load ptr, ptr %2, align 8, !tbaa !37
  %4 = getelementptr inbounds nuw i8, ptr %3, i64 144
  %5 = load i32, ptr %4, align 8, !tbaa !41
  %6 = and i32 %5, 1
  %.not = icmp eq i32 %6, 0
  br i1 %.not, label %24, label %7

7:                                                ; preds = %1
  %8 = getelementptr inbounds nuw i8, ptr %0, i64 48
  %9 = load ptr, ptr %8, align 8, !tbaa !4
  %10 = load ptr, ptr %9, align 8, !tbaa !24
  %11 = tail call i64 @avio_seek(ptr noundef nonnull %3, i64 noundef 260, i32 noundef 0) #3
  %12 = getelementptr inbounds nuw i8, ptr %10, i64 56
  %13 = load i64, ptr %12, align 8, !tbaa !43
  %14 = getelementptr inbounds nuw i8, ptr %10, i64 16
  %15 = load ptr, ptr %14, align 8, !tbaa !26
  %16 = getelementptr inbounds nuw i8, ptr %15, i64 132
  %17 = load i32, ptr %16, align 4, !tbaa !33
  %18 = sext i32 %17 to i64
  %19 = mul nsw i64 %13, %18
  %20 = icmp sgt i64 %19, 4294967295
  br i1 %20, label %21, label %22

21:                                               ; preds = %7
  tail call void (ptr, i32, ptr, ...) @av_log(ptr noundef nonnull %0, i32 noundef 24, ptr noundef nonnull @.str.6, i64 noundef %19) #3
  br label %22

22:                                               ; preds = %21, %7
  %.0 = phi i64 [ 4294967295, %21 ], [ %19, %7 ]
  %23 = trunc i64 %.0 to i32
  tail call void @avio_wl32(ptr noundef nonnull %3, i32 noundef %23) #3
  br label %25

24:                                               ; preds = %1
  tail call void (ptr, i32, ptr, ...) @av_log(ptr noundef nonnull %0, i32 noundef 24, ptr noundef nonnull @.str.7) #3
  br label %25

25:                                               ; preds = %24, %22
  ret i32 0
}